target datalayout = "e-m:e-p270:32:32-p271:32:32-p272:64:64-i64:64-i128:128-f80:128-n8:16:32:64-S128"
target triple = "x86_64-pc-linux-gnu"

%struct.AVCodecContext = type { ptr, i32, i32, ptr, i32, i32, ptr, ptr, ptr, i64, i32, i32, ptr, i32, %struct.AVRational, %struct.AVRational, %struct.AVRational, i32, i32, i32, i32, i32, %struct.AVRational, i32, i32, i32, i32, i32, i32, i32, i32, i32, i32, i32, ptr, ptr, i32, float, float, float, float, float, float, float, float, float, i32, i32, i32, i32, i32, i32, i32, i32, i32, i32, i32, i32, ptr, ptr, ptr, i32, i32, i32, i32, i32, i32, i32, i32, i32, i32, %struct.AVChannelLayout, i32, i32, i32, i32, i32, i32, i32, i32, ptr, i32, i32, i32, float, float, i32, i32, i32, i32, i32, ptr, i64, i64, float, float, i32, i32, ptr, ptr, i32, i32, i32, i32, i32, ptr, ptr, ptr, ptr, i32, i32, [8 x i64], i32, i32, i32, i32, i32, i32, i32, ptr, ptr, i32, i32, i32, i32, i32, i32, i32, i32, i32, i32, ptr, ptr, i32, i32, ptr, ptr, ptr, ptr, i32, i32, i64, i32, i32, i64, ptr, i64, ptr, i32, ptr, i32 }
%struct.AVRational = type { i32, i32 }
%struct.AVChannelLayout = type { i32, i32, %union.anon.0, ptr }
%union.anon.0 = type { i64 }
%struct.APACContext = type { %struct.GetBitContext, i32, i32, [2 x %struct.ChContext], ptr, i64, i32, i32 }
%struct.GetBitContext = type { ptr, ptr, i32, i32, i32 }
%struct.ChContext = type { i32, i32, i32, i32, i32, [64 x i8], ptr }

; Function Attrs: cold nounwind optsize uwtable
define internal i32 @apac_init(ptr noundef %0) #0 {
  %2 = alloca i32, align 4
  %3 = alloca ptr, align 8
  %4 = alloca ptr, align 8
  %5 = alloca i32, align 4
  %6 = alloca i32, align 4
  %7 = alloca ptr, align 8
  store ptr %0, ptr %3, align 8, !tbaa !4
  call void @llvm.lifetime.start.p0(i64 8, ptr %4) #8
  %8 = load ptr, ptr %3, align 8, !tbaa !4
  %9 = getelementptr inbounds nuw %struct.AVCodecContext, ptr %8, i32 0, i32 6
  %10 = load ptr, ptr %9, align 8, !tbaa !9
  store ptr %10, ptr %4, align 8, !tbaa !29
  %11 = load ptr, ptr %3, align 8, !tbaa !4
  %12 = getelementptr inbounds nuw %struct.AVCodecContext, ptr %11, i32 0, i32 114
  %13 = load i32, ptr %12, align 8, !tbaa !31
  %14 = icmp sgt i32 %13, 8
  br i1 %14, label %15, label %18

15:                                               ; preds = %1
  %16 = load ptr, ptr %3, align 8, !tbaa !4
  %17 = getelementptr inbounds nuw %struct.AVCodecContext, ptr %16, i32 0, i32 70
  store i32 6, ptr %17, align 4, !tbaa !32
  br label %21

18:                                               ; preds = %1
  %19 = load ptr, ptr %3, align 8, !tbaa !4
  %20 = getelementptr inbounds nuw %struct.AVCodecContext, ptr %19, i32 0, i32 70
  store i32 5, ptr %20, align 4, !tbaa !32
  br label %21

21:                                               ; preds = %18, %15
  %22 = load ptr, ptr %3, align 8, !tbaa !4
  %23 = getelementptr inbounds nuw %struct.AVCodecContext, ptr %22, i32 0, i32 71
  %24 = getelementptr inbounds nuw %struct.AVChannelLayout, ptr %23, i32 0, i32 1
  %25 = load i32, ptr %24, align 4, !tbaa !33
  %26 = icmp slt i32 %25, 1
  br i1 %26, label %43, label %27

27:                                               ; preds = %21
  %28 = load ptr, ptr %3, align 8, !tbaa !4
  %29 = getelementptr inbounds nuw %struct.AVCodecContext, ptr %28, i32 0, i32 71
  %30 = getelementptr inbounds nuw %struct.AVChannelLayout, ptr %29, i32 0, i32 1
  %31 = load i32, ptr %30, align 4, !tbaa !33
  %32 = icmp sgt i32 %31, 2
  br i1 %32, label %43, label %33

33:                                               ; preds = %27
  %34 = load ptr, ptr %3, align 8, !tbaa !4
  %35 = getelementptr inbounds nuw %struct.AVCodecContext, ptr %34, i32 0, i32 114
  %36 = load i32, ptr %35, align 8, !tbaa !31
  %37 = icmp slt i32 %36, 8
  br i1 %37, label %43, label %38

38:                                               ; preds = %33
  %39 = load ptr, ptr %3, align 8, !tbaa !4
  %40 = getelementptr inbounds nuw %struct.AVCodecContext, ptr %39, i32 0, i32 114
  %41 = load i32, ptr %40, align 8, !tbaa !31
  %42 = icmp sgt i32 %41, 16
  br i1 %42, label %43, label %44

43:                                               ; preds = %38, %33, %27, %21
  store i32 -1094995529, ptr %2, align 4
  store i32 1, ptr %5, align 4
  br label %107

44:                                               ; preds = %38
  call void @llvm.lifetime.start.p0(i64 4, ptr %6) #8
  store i32 0, ptr %6, align 4, !tbaa !34
  br label %45

45:                                               ; preds = %83, %44
  %46 = load i32, ptr %6, align 4, !tbaa !34
  %47 = load ptr, ptr %3, align 8, !tbaa !4
  %48 = getelementptr inbounds nuw %struct.AVCodecContext, ptr %47, i32 0, i32 71
  %49 = getelementptr inbounds nuw %struct.AVChannelLayout, ptr %48, i32 0, i32 1
  %50 = load i32, ptr %49, align 4, !tbaa !33
  %51 = icmp slt i32 %46, %50
  br i1 %51, label %53, label %52

52:                                               ; preds = %45
  store i32 2, ptr %5, align 4
  br label %86

53:                                               ; preds = %45
  call void @llvm.lifetime.start.p0(i64 8, ptr %7) #8
  %54 = load ptr, ptr %4, align 8, !tbaa !29
  %55 = getelementptr inbounds nuw %struct.APACContext, ptr %54, i32 0, i32 3
  %56 = load i32, ptr %6, align 4, !tbaa !34
  %57 = sext i32 %56 to i64
  %58 = getelementptr inbounds [2 x %struct.ChContext], ptr %55, i64 0, i64 %57
  store ptr %58, ptr %7, align 8, !tbaa !35
  %59 = load ptr, ptr %3, align 8, !tbaa !4
  %60 = getelementptr inbounds nuw %struct.AVCodecContext, ptr %59, i32 0, i32 114
  %61 = load i32, ptr %60, align 8, !tbaa !31
  %62 = load ptr, ptr %7, align 8, !tbaa !35
  %63 = getelementptr inbounds nuw %struct.ChContext, ptr %62, i32 0, i32 3
  store i32 %61, ptr %63, align 4, !tbaa !37
  %64 = load ptr, ptr %7, align 8, !tbaa !35
  %65 = getelementptr inbounds nuw %struct.ChContext, ptr %64, i32 0, i32 4
  store i32 8, ptr %65, align 8, !tbaa !40
  %66 = load ptr, ptr %7, align 8, !tbaa !35
  %67 = getelementptr inbounds nuw %struct.ChContext, ptr %66, i32 0, i32 0
  store i32 0, ptr %67, align 8, !tbaa !41
  %68 = load ptr, ptr %3, align 8, !tbaa !4
  %69 = getelementptr inbounds nuw %struct.AVCodecContext, ptr %68, i32 0, i32 70
  %70 = load i32, ptr %69, align 4, !tbaa !32
  %71 = call ptr @av_audio_fifo_alloc(i32 noundef %70, i32 noundef 1, i32 noundef 1024)
  %72 = load ptr, ptr %7, align 8, !tbaa !35
  %73 = getelementptr inbounds nuw %struct.ChContext, ptr %72, i32 0, i32 6
  store ptr %71, ptr %73, align 8, !tbaa !42
  %74 = load ptr, ptr %7, align 8, !tbaa !35
  %75 = getelementptr inbounds nuw %struct.ChContext, ptr %74, i32 0, i32 6
  %76 = load ptr, ptr %75, align 8, !tbaa !42
  %77 = icmp ne ptr %76, null
  br i1 %77, label %79, label %78

78:                                               ; preds = %53
  store i32 -12, ptr %2, align 4
  store i32 1, ptr %5, align 4
  br label %80

79:                                               ; preds = %53
  store i32 0, ptr %5, align 4
  br label %80

80:                                               ; preds = %79, %78
  call void @llvm.lifetime.end.p0(i64 8, ptr %7) #8
  %81 = load i32, ptr %5, align 4
  switch i32 %81, label %86 [
    i32 0, label %82
  ]

82:                                               ; preds = %80
  br label %83

83:                                               ; preds = %82
  %84 = load i32, ptr %6, align 4, !tbaa !34
  %85 = add nsw i32 %84, 1
  store i32 %85, ptr %6, align 4, !tbaa !34
  br label %45, !llvm.loop !43

86:                                               ; preds = %80, %52
  call void @llvm.lifetime.end.p0(i64 4, ptr %6) #8
  %87 = load i32, ptr %5, align 4
  switch i32 %87, label %107 [
    i32 2, label %88
  ]

88:                                               ; preds = %86
  %89 = load ptr, ptr %4, align 8, !tbaa !29
  %90 = getelementptr inbounds nuw %struct.APACContext, ptr %89, i32 0, i32 5
  store i64 1024, ptr %90, align 8, !tbaa !45
  %91 = load ptr, ptr %4, align 8, !tbaa !29
  %92 = getelementptr inbounds nuw %struct.APACContext, ptr %91, i32 0, i32 4
  %93 = load ptr, ptr %92, align 8, !tbaa !48
  %94 = load ptr, ptr %4, align 8, !tbaa !29
  %95 = getelementptr inbounds nuw %struct.APACContext, ptr %94, i32 0, i32 5
  %96 = load i64, ptr %95, align 8, !tbaa !45
  %97 = add nsw i64 %96, 64
  %98 = call ptr @av_realloc_f(ptr noundef %93, i64 noundef %97, i64 noundef 1)
  %99 = load ptr, ptr %4, align 8, !tbaa !29
  %100 = getelementptr inbounds nuw %struct.APACContext, ptr %99, i32 0, i32 4
  store ptr %98, ptr %100, align 8, !tbaa !48
  %101 = load ptr, ptr %4, align 8, !tbaa !29
  %102 = getelementptr inbounds nuw %struct.APACContext, ptr %101, i32 0, i32 4
  %103 = load ptr, ptr %102, align 8, !tbaa !48
  %104 = icmp ne ptr %103, null
  br i1 %104, label %106, label %105

105:                                              ; preds = %88
  store i32 -12, ptr %2, align 4
  store i32 1, ptr %5, align 4
  br label %107

106:                                              ; preds = %88
  store i32 0, ptr %2, align 4
  store i32 1, ptr %5, align 4
  br label %107

107:                                              ; preds = %106, %105, %86, %43
  call void @llvm.lifetime.end.p0(i64 8, ptr %4) #8
  %108 = load i32, ptr %2, align 4
  ret i32 %108
}