; Function Attrs: cold nounwind optsize uwtable
define internal range(i32 -1094995529, 1) i32 @apac_init(ptr noundef captures(none) initializes((348, 352)) %0) #0 {
  %2 = getelementptr inbounds nuw i8, ptr %0, i64 32
  %3 = load ptr, ptr %2, align 8, !tbaa !4
  %4 = getelementptr inbounds nuw i8, ptr %0, i64 648
  %5 = load i32, ptr %4, align 8, !tbaa !27
  %6 = icmp sgt i32 %5, 8
  %spec.select = select i1 %6, i32 6, i32 5
  %7 = getelementptr inbounds nuw i8, ptr %0, i64 348
  store i32 %spec.select, ptr %7, align 4, !tbaa !28
  %8 = getelementptr inbounds nuw i8, ptr %0, i64 356
  %9 = load i32, ptr %8, align 4, !tbaa !29
  %10 = add i32 %9, -3
  %or.cond = icmp ult i32 %10, -2
  %11 = add i32 %5, -17
  %or.cond34 = icmp ult i32 %11, -9
  %or.cond35 = or i1 %or.cond34, %or.cond
  br i1 %or.cond35, label %.loopexit, label %.lr.ph

.lr.ph:                                           ; preds = %1
  %12 = getelementptr inbounds nuw i8, ptr %3, i64 40
  br label %16

13:                                               ; preds = %16
  %indvars.iv.next = add nuw nsw i64 %indvars.iv, 1
  %14 = load i32, ptr %8, align 4, !tbaa !29
  %15 = sext i32 %14 to i64
  %.not = icmp slt i64 %indvars.iv.next, %15
  br i1 %.not, label %16, label %.critedge, !llvm.loop !30

16:                                               ; preds = %.lr.ph, %13
  %indvars.iv = phi i64 [ 0, %.lr.ph ], [ %indvars.iv.next, %13 ]
  %17 = getelementptr inbounds nuw [2 x %struct.ChContext], ptr %12, i64 0, i64 %indvars.iv
  %18 = load i32, ptr %4, align 8, !tbaa !27
  %19 = getelementptr inbounds nuw i8, ptr %17, i64 12
  store i32 %18, ptr %19, align 4, !tbaa !32
  %20 = getelementptr inbounds nuw i8, ptr %17, i64 16
  store i32 8, ptr %20, align 8, !tbaa !35
  store i32 0, ptr %17, align 8, !tbaa !36
  %21 = load i32, ptr %7, align 4, !tbaa !28
  %22 = tail call ptr @av_audio_fifo_alloc(i32 noundef %21, i32 noundef 1, i32 noundef 1024) #7
  %23 = getelementptr inbounds nuw i8, ptr %17, i64 88
  store ptr %22, ptr %23, align 8, !tbaa !37
  %.not.not = icmp eq ptr %22, null
  br i1 %.not.not, label %.loopexit, label %13

.critedge:                                        ; preds = %13
  %24 = getelementptr inbounds nuw i8, ptr %3, i64 240
  store i64 1024, ptr %24, align 8, !tbaa !38
  %25 = getelementptr inbounds nuw i8, ptr %3, i64 232
  %26 = load ptr, ptr %25, align 8, !tbaa !41
  %27 = tail call ptr @av_realloc_f(ptr noundef %26, i64 noundef 1088, i64 noundef 1) #7
  store ptr %27, ptr %25, align 8, !tbaa !41
  %.not33 = icmp eq ptr %27, null
  %. = select i1 %.not33, i32 -12, i32 0
  br label %.loopexit

.loopexit:                                        ; preds = %16, %.critedge, %1
  %.0 = phi i32 [ -1094995529, %1 ], [ %., %.critedge ], [ -12, %16 ]
  ret i32 %.0
}